; Function Attrs: mustprogress uwtable
define hidden void @_ZNK19OpenColorIO_v2_5dev22ExposureContrastOpData18getDynamicPropertyENS_19DynamicPropertyTypeE(ptr dead_on_unwind noalias writable writeonly sret(%"class.std::shared_ptr.15") align 8 captures(none) %0, ptr noundef nonnull readonly align 8 captures(none) dereferenceable(248) %1, i32 noundef %2) local_unnamed_addr #0 align 2 personality ptr @__gxx_personality_v0 {
  switch i32 %2, label %58 [
    i32 0, label %4
    i32 1, label %22
    i32 2, label %40
  ]

4:                                                ; preds = %3
  %5 = getelementptr inbounds nuw i8, ptr %1, i64 176
  %6 = load ptr, ptr %5, align 8, !tbaa !42
  %7 = getelementptr inbounds nuw i8, ptr %6, i64 12
  %8 = load i8, ptr %7, align 4, !tbaa !76, !range !81, !noundef !82
  %9 = trunc nuw i8 %8 to i1
  br i1 %9, label %10, label %63

10:                                               ; preds = %4
  store ptr %6, ptr %0, align 8, !tbaa !112
  %11 = getelementptr inbounds nuw i8, ptr %0, i64 8
  %12 = getelementptr inbounds nuw i8, ptr %1, i64 184
  %13 = load ptr, ptr %12, align 8, !tbaa !47
  store ptr %13, ptr %11, align 8, !tbaa !47
  %.not.i.i.i = icmp eq ptr %13, null
  br i1 %.not.i.i.i, label %_ZNSt10shared_ptrIN19OpenColorIO_v2_5dev15DynamicPropertyEEC2INS0_25DynamicPropertyDoubleImplEvEERKS_IT_E.exit, label %14

14:                                               ; preds = %10
  %15 = getelementptr inbounds nuw i8, ptr %13, i64 8
  %16 = load i8, ptr @__libc_single_threaded, align 1, !tbaa !3
  %.not.i.i.i.i = icmp eq i8 %16, 0
  br i1 %.not.i.i.i.i, label %20, label %17

17:                                               ; preds = %14
  %18 = load i32, ptr %15, align 4, !tbaa !58
  %19 = add nsw i32 %18, 1
  store i32 %19, ptr %15, align 4, !tbaa !58
  br label %_ZNSt10shared_ptrIN19OpenColorIO_v2_5dev15DynamicPropertyEEC2INS0_25DynamicPropertyDoubleImplEvEERKS_IT_E.exit

20:                                               ; preds = %14
  %21 = atomicrmw volatile add ptr %15, i32 1 acq_rel, align 4
  br label %_ZNSt10shared_ptrIN19OpenColorIO_v2_5dev15DynamicPropertyEEC2INS0_25DynamicPropertyDoubleImplEvEERKS_IT_E.exit

22:                                               ; preds = %3
  %23 = getelementptr inbounds nuw i8, ptr %1, i64 192
  %24 = load ptr, ptr %23, align 8, !tbaa !42
  %25 = getelementptr inbounds nuw i8, ptr %24, i64 12
  %26 = load i8, ptr %25, align 4, !tbaa !76, !range !81, !noundef !82
  %27 = trunc nuw i8 %26 to i1
  br i1 %27, label %28, label %63

28:                                               ; preds = %22
  store ptr %24, ptr %0, align 8, !tbaa !112
  %29 = getelementptr inbounds nuw i8, ptr %0, i64 8
  %30 = getelementptr inbounds nuw i8, ptr %1, i64 200
  %31 = load ptr, ptr %30, align 8, !tbaa !47
  store ptr %31, ptr %29, align 8, !tbaa !47
  %.not.i.i.i5 = icmp eq ptr %31, null
  br i1 %.not.i.i.i5, label %_ZNSt10shared_ptrIN19OpenColorIO_v2_5dev15DynamicPropertyEEC2INS0_25DynamicPropertyDoubleImplEvEERKS_IT_E.exit, label %32

32:                                               ; preds = %28
  %33 = getelementptr inbounds nuw i8, ptr %31, i64 8
  %34 = load i8, ptr @__libc_single_threaded, align 1, !tbaa !3
  %.not.i.i.i.i6 = icmp eq i8 %34, 0
  br i1 %.not.i.i.i.i6, label %38, label %35

35:                                               ; preds = %32
  %36 = load i32, ptr %33, align 4, !tbaa !58
  %37 = add nsw i32 %36, 1
  store i32 %37, ptr %33, align 4, !tbaa !58
  br label %_ZNSt10shared_ptrIN19OpenColorIO_v2_5dev15DynamicPropertyEEC2INS0_25DynamicPropertyDoubleImplEvEERKS_IT_E.exit

38:                                               ; preds = %32
  %39 = atomicrmw volatile add ptr %33, i32 1 acq_rel, align 4
  br label %_ZNSt10shared_ptrIN19OpenColorIO_v2_5dev15DynamicPropertyEEC2INS0_25DynamicPropertyDoubleImplEvEERKS_IT_E.exit

40:                                               ; preds = %3
  %41 = getelementptr inbounds nuw i8, ptr %1, i64 208
  %42 = load ptr, ptr %41, align 8, !tbaa !42
  %43 = getelementptr inbounds nuw i8, ptr %42, i64 12
  %44 = load i8, ptr %43, align 4, !tbaa !76, !range !81, !noundef !82
  %45 = trunc nuw i8 %44 to i1
  br i1 %45, label %46, label %63

46:                                               ; preds = %40
  store ptr %42, ptr %0, align 8, !tbaa !112
  %47 = getelementptr inbounds nuw i8, ptr %0, i64 8
  %48 = getelementptr inbounds nuw i8, ptr %1, i64 216
  %49 = load ptr, ptr %48, align 8, !tbaa !47
  store ptr %49, ptr %47, align 8, !tbaa !47
  %.not.i.i.i8 = icmp eq ptr %49, null
  br i1 %.not.i.i.i8, label %_ZNSt10shared_ptrIN19OpenColorIO_v2_5dev15DynamicPropertyEEC2INS0_25DynamicPropertyDoubleImplEvEERKS_IT_E.exit, label %50

50:                                               ; preds = %46
  %51 = getelementptr inbounds nuw i8, ptr %49, i64 8
  %52 = load i8, ptr @__libc_single_threaded, align 1, !tbaa !3
  %.not.i.i.i.i9 = icmp eq i8 %52, 0
  br i1 %.not.i.i.i.i9, label %56, label %53

53:                                               ; preds = %50
  %54 = load i32, ptr %51, align 4, !tbaa !58
  %55 = add nsw i32 %54, 1
  store i32 %55, ptr %51, align 4, !tbaa !58
  br label %_ZNSt10shared_ptrIN19OpenColorIO_v2_5dev15DynamicPropertyEEC2INS0_25DynamicPropertyDoubleImplEvEERKS_IT_E.exit

56:                                               ; preds = %50
  %57 = atomicrmw volatile add ptr %51, i32 1 acq_rel, align 4
  br label %_ZNSt10shared_ptrIN19OpenColorIO_v2_5dev15DynamicPropertyEEC2INS0_25DynamicPropertyDoubleImplEvEERKS_IT_E.exit

58:                                               ; preds = %3
  %59 = tail call ptr @__cxa_allocate_exception(i64 16) #19
  invoke void @_ZN19OpenColorIO_v2_5dev9ExceptionC1EPKc(ptr noundef nonnull align 8 dereferenceable(16) %59, ptr noundef nonnull @.str.13)
          to label %60 unwind label %61

60:                                               ; preds = %58
  tail call void @__cxa_throw(ptr nonnull %59, ptr nonnull @_ZTIN19OpenColorIO_v2_5dev9ExceptionE, ptr nonnull @_ZN19OpenColorIO_v2_5dev9ExceptionD1Ev) #20
  unreachable

61:                                               ; preds = %58
  %62 = landingpad { ptr, i32 }
          cleanup
  br label %68

63:                                               ; preds = %40, %22, %4
  %64 = tail call ptr @__cxa_allocate_exception(i64 16) #19
  invoke void @_ZN19OpenColorIO_v2_5dev9ExceptionC1EPKc(ptr noundef nonnull align 8 dereferenceable(16) %64, ptr noundef nonnull @.str.14)
          to label %65 unwind label %66

65:                                               ; preds = %63
  tail call void @__cxa_throw(ptr nonnull %64, ptr nonnull @_ZTIN19OpenColorIO_v2_5dev9ExceptionE, ptr nonnull @_ZN19OpenColorIO_v2_5dev9ExceptionD1Ev) #20
  unreachable

66:                                               ; preds = %63
  %67 = landingpad { ptr, i32 }
          cleanup
  br label %68

_ZNSt10shared_ptrIN19OpenColorIO_v2_5dev15DynamicPropertyEEC2INS0_25DynamicPropertyDoubleImplEvEERKS_IT_E.exit: ; preds = %56, %53, %46, %38, %35, %28, %20, %17, %10
  ret void

68:                                               ; preds = %66, %61
  %.sink = phi ptr [ %64, %66 ], [ %59, %61 ]
  %.pn = phi { ptr, i32 } [ %67, %66 ], [ %62, %61 ]
  tail call void @__cxa_free_exception(ptr nonnull %.sink) #19
  resume { ptr, i32 } %.pn
}